(dp1
S'lrate'
p2
F1.0000000000000001e-09
sS'model_cost_coeff'
p3
F0.10000000000000001
sS'decay_c'
p4
F0
sS'patience'
p5
I15
sS'max_epochs'
p6
I5000
sS'dispFreq'
p7
I100
sS'tmpdir'
p8
S'../log/20191222-211427'
p9
sS'validFreq'
p10
I-1
sS'clip_c'
p11
F1000
sS'saveto'
p12
S'../model/attention_maxlen[250]_dimWord256_dim256.npz'
p13
sS'dim_coverage'
p14
I121
sS'valid_batch_size'
p15
I8
sS'dim_dec'
p16
I256
sS'optimizer'
p17
S'adadelta_weightnoise'
p18
sS'alpha_c'
p19
F0
sS'batch_size'
p20
I8
sS'encoder'
p21
S'gru'
p22
sS'dim_target'
p23
I107
sS'decoder'
p24
S'gru_cond'
p25
sS'valid_datasets'
p26
(lp27
S'../data/valid/online.pkl'
p28
aS'../data/valid/caption.txt'
p29
asS'dim_feature'
p30
I8
sS'use_dropout'
p31
I00
sS'datasets'
p32
(lp33
S'../data/train/online.pkl'
p34
aS'../data/train/caption.txt'
p35
aS'../data/train/align-online.pkl'
p36
asS'dim_word'
p37
I256
sS'sampleFreq'
p38
I-1
sS'dim_enc'
p39
(lp40
I250
aI250
aI250
aI250
asS'dictionaries'
p41
(lp42
S'../data/dictionary.txt'
p43
asS'saveFreq'
p44
I-1
sS'maxlen'
p45
I250
sS'finish_after'
p46
I10000000
sS'down_sample'
p47
(lp48
I0
aI0
aI1
aI1
asS'reload_'
p49
I01
sS'gamma'
p50
F0.10000000000000001
s.